; Function Attrs: nofree norecurse nosync nounwind memory(argmem: readwrite) uwtable
define void @Kit_TruthCofactor1New(ptr noundef writeonly captures(none) %0, ptr noundef readonly captures(none) %1, i32 noundef %2, i32 noundef %3) local_unnamed_addr #0 {
  %5 = icmp slt i32 %2, 6
  %6 = add nsw i32 %2, -5
  %7 = shl nuw i32 1, %6
  %8 = select i1 %5, i32 1, i32 %7
  switch i32 %3, label %44 [
    i32 0, label %.preheader71
    i32 1, label %.preheader73
    i32 2, label %.preheader75
    i32 3, label %.preheader77
    i32 4, label %.preheader79
  ]

.preheader79:                                     ; preds = %4
  %9 = icmp sgt i32 %8, 0
  br i1 %9, label %.lr.ph.preheader, label %.loopexit

.lr.ph.preheader:                                 ; preds = %.preheader79
  %wide.trip.count = zext nneg i32 %8 to i64
  br label %.lr.ph

.preheader77:                                     ; preds = %4
  %10 = icmp sgt i32 %8, 0
  br i1 %10, label %.lr.ph83.preheader, label %.loopexit

.lr.ph83.preheader:                               ; preds = %.preheader77
  %wide.trip.count105 = zext nneg i32 %8 to i64
  br label %.lr.ph83

.preheader75:                                     ; preds = %4
  %11 = icmp sgt i32 %8, 0
  br i1 %11, label %.lr.ph85.preheader, label %.loopexit

.lr.ph85.preheader:                               ; preds = %.preheader75
  %wide.trip.count110 = zext nneg i32 %8 to i64
  br label %.lr.ph85

.preheader73:                                     ; preds = %4
  %12 = icmp sgt i32 %8, 0
  br i1 %12, label %.lr.ph87.preheader, label %.loopexit

.lr.ph87.preheader:                               ; preds = %.preheader73
  %wide.trip.count115 = zext nneg i32 %8 to i64
  br label %.lr.ph87

.preheader71:                                     ; preds = %4
  %13 = icmp sgt i32 %8, 0
  br i1 %13, label %.lr.ph89.preheader, label %.loopexit

.lr.ph89.preheader:                               ; preds = %.preheader71
  %wide.trip.count120 = zext nneg i32 %8 to i64
  br label %.lr.ph89

.lr.ph89:                                         ; preds = %.lr.ph89.preheader, %.lr.ph89
  %indvars.iv117 = phi i64 [ 0, %.lr.ph89.preheader ], [ %indvars.iv.next118, %.lr.ph89 ]
  %14 = getelementptr inbounds nuw i32, ptr %1, i64 %indvars.iv117
  %15 = load i32, ptr %14, align 4, !tbaa !3
  %16 = and i32 %15, -1431655766
  %17 = lshr exact i32 %16, 1
  %18 = or disjoint i32 %17, %16
  %19 = getelementptr inbounds nuw i32, ptr %0, i64 %indvars.iv117
  store i32 %18, ptr %19, align 4, !tbaa !3
  %indvars.iv.next118 = add nuw nsw i64 %indvars.iv117, 1
  %exitcond121.not = icmp eq i64 %indvars.iv.next118, %wide.trip.count120
  br i1 %exitcond121.not, label %.loopexit, label %.lr.ph89, !llvm.loop !69

.lr.ph87:                                         ; preds = %.lr.ph87.preheader, %.lr.ph87
  %indvars.iv112 = phi i64 [ 0, %.lr.ph87.preheader ], [ %indvars.iv.next113, %.lr.ph87 ]
  %20 = getelementptr inbounds nuw i32, ptr %1, i64 %indvars.iv112
  %21 = load i32, ptr %20, align 4, !tbaa !3
  %22 = and i32 %21, -858993460
  %23 = lshr exact i32 %22, 2
  %24 = or disjoint i32 %23, %22
  %25 = getelementptr inbounds nuw i32, ptr %0, i64 %indvars.iv112
  store i32 %24, ptr %25, align 4, !tbaa !3
  %indvars.iv.next113 = add nuw nsw i64 %indvars.iv112, 1
  %exitcond116.not = icmp eq i64 %indvars.iv.next113, %wide.trip.count115
  br i1 %exitcond116.not, label %.loopexit, label %.lr.ph87, !llvm.loop !70

.lr.ph85:                                         ; preds = %.lr.ph85.preheader, %.lr.ph85
  %indvars.iv107 = phi i64 [ 0, %.lr.ph85.preheader ], [ %indvars.iv.next108, %.lr.ph85 ]
  %26 = getelementptr inbounds nuw i32, ptr %1, i64 %indvars.iv107
  %27 = load i32, ptr %26, align 4, !tbaa !3
  %28 = and i32 %27, -252645136
  %29 = lshr exact i32 %28, 4
  %30 = or disjoint i32 %29, %28
  %31 = getelementptr inbounds nuw i32, ptr %0, i64 %indvars.iv107
  store i32 %30, ptr %31, align 4, !tbaa !3
  %indvars.iv.next108 = add nuw nsw i64 %indvars.iv107, 1
  %exitcond111.not = icmp eq i64 %indvars.iv.next108, %wide.trip.count110
  br i1 %exitcond111.not, label %.loopexit, label %.lr.ph85, !llvm.loop !71

.lr.ph83:                                         ; preds = %.lr.ph83.preheader, %.lr.ph83
  %indvars.iv102 = phi i64 [ 0, %.lr.ph83.preheader ], [ %indvars.iv.next103, %.lr.ph83 ]
  %32 = getelementptr inbounds nuw i32, ptr %1, i64 %indvars.iv102
  %33 = load i32, ptr %32, align 4, !tbaa !3
  %34 = and i32 %33, -16711936
  %35 = lshr exact i32 %34, 8
  %36 = or disjoint i32 %35, %34
  %37 = getelementptr inbounds nuw i32, ptr %0, i64 %indvars.iv102
  store i32 %36, ptr %37, align 4, !tbaa !3
  %indvars.iv.next103 = add nuw nsw i64 %indvars.iv102, 1
  %exitcond106.not = icmp eq i64 %indvars.iv.next103, %wide.trip.count105
  br i1 %exitcond106.not, label %.loopexit, label %.lr.ph83, !llvm.loop !72

.lr.ph:                                           ; preds = %.lr.ph.preheader, %.lr.ph
  %indvars.iv = phi i64 [ 0, %.lr.ph.preheader ], [ %indvars.iv.next, %.lr.ph ]
  %38 = getelementptr inbounds nuw i32, ptr %1, i64 %indvars.iv
  %39 = load i32, ptr %38, align 4, !tbaa !3
  %40 = and i32 %39, -65536
  %41 = lshr i32 %39, 16
  %42 = or disjoint i32 %40, %41
  %43 = getelementptr inbounds nuw i32, ptr %0, i64 %indvars.iv
  store i32 %42, ptr %43, align 4, !tbaa !3
  %indvars.iv.next = add nuw nsw i64 %indvars.iv, 1
  %exitcond.not = icmp eq i64 %indvars.iv.next, %wide.trip.count
  br i1 %exitcond.not, label %.loopexit, label %.lr.ph, !llvm.loop !73

44:                                               ; preds = %4
  %45 = add nsw i32 %3, -5
  %46 = shl nuw i32 1, %45
  %47 = icmp sgt i32 %8, 0
  br i1 %47, label %.preheader.lr.ph, label %.loopexit

.preheader.lr.ph:                                 ; preds = %44
  %.not = icmp eq i32 %45, 31
  %48 = shl i32 2, %45
  %49 = sext i32 %48 to i64
  br i1 %.not, label %.loopexit, label %.preheader.us.preheader

.preheader.us.preheader:                          ; preds = %.preheader.lr.ph
  %50 = sext i32 %46 to i64
  %smax = tail call i32 @llvm.smax.i32(i32 %46, i32 1)
  %wide.trip.count125 = zext nneg i32 %smax to i64
  br label %.preheader.us

.preheader.us:                                    ; preds = %.preheader.us.preheader, %._crit_edge.us
  %.094.us = phi ptr [ %58, %._crit_edge.us ], [ %0, %.preheader.us.preheader ]
  %.06693.us = phi i32 [ %59, %._crit_edge.us ], [ 0, %.preheader.us.preheader ]
  %.06892.us = phi ptr [ %57, %._crit_edge.us ], [ %1, %.preheader.us.preheader ]
  br label %51

51:                                               ; preds = %.preheader.us, %51
  %indvars.iv122 = phi i64 [ 0, %.preheader.us ], [ %indvars.iv.next123, %51 ]
  %52 = add nuw nsw i64 %indvars.iv122, %50
  %53 = getelementptr inbounds i32, ptr %.06892.us, i64 %52
  %54 = load i32, ptr %53, align 4, !tbaa !3
  %55 = getelementptr inbounds i32, ptr %.094.us, i64 %52
  store i32 %54, ptr %55, align 4, !tbaa !3
  %56 = getelementptr inbounds nuw i32, ptr %.094.us, i64 %indvars.iv122
  store i32 %54, ptr %56, align 4, !tbaa !3
  %indvars.iv.next123 = add nuw nsw i64 %indvars.iv122, 1
  %exitcond126.not = icmp eq i64 %indvars.iv.next123, %wide.trip.count125
  br i1 %exitcond126.not, label %._crit_edge.us, label %51, !llvm.loop !74

._crit_edge.us:                                   ; preds = %51
  %57 = getelementptr inbounds i32, ptr %.06892.us, i64 %49
  %58 = getelementptr inbounds i32, ptr %.094.us, i64 %49
  %59 = add nsw i32 %.06693.us, %48
  %60 = icmp slt i32 %59, %8
  br i1 %60, label %.preheader.us, label %.loopexit, !llvm.loop !75

.loopexit:                                        ; preds = %.lr.ph, %.lr.ph83, %.lr.ph85, %.lr.ph87, %.lr.ph89, %._crit_edge.us, %.preheader.lr.ph, %.preheader79, %.preheader77, %.preheader75, %.preheader73, %.preheader71, %44
  ret void
}